; Function Attrs: mustprogress uwtable
define dso_local noundef i32 @_ZN7doctest6detail7regTestERKNS0_8TestCaseE(ptr noundef nonnull align 8 dereferenceable(144) %0) local_unnamed_addr #8 personality ptr @__gxx_personality_v0 {
  %2 = alloca %"struct.std::_Rb_tree<doctest::detail::TestCase, doctest::detail::TestCase, std::_Identity<doctest::detail::TestCase>, std::less<doctest::detail::TestCase>>::_Alloc_node", align 8
  %3 = load atomic i8, ptr @_ZGVZN7doctest6detail18getRegisteredTestsEvE4data acquire, align 8
  %4 = icmp eq i8 %3, 0
  br i1 %4, label %5, label %_ZN7doctest6detail18getRegisteredTestsEv.exit, !prof !227

5:                                                ; preds = %1
  %6 = tail call i32 @__cxa_guard_acquire(ptr nonnull @_ZGVZN7doctest6detail18getRegisteredTestsEvE4data) #49
  %.not.i = icmp eq i32 %6, 0
  br i1 %.not.i, label %_ZN7doctest6detail18getRegisteredTestsEv.exit, label %7

7:                                                ; preds = %5
  store i32 0, ptr getelementptr inbounds nuw (i8, ptr @_ZZN7doctest6detail18getRegisteredTestsEvE4data, i64 8), align 8, !tbaa !228
  store ptr null, ptr getelementptr inbounds nuw (i8, ptr @_ZZN7doctest6detail18getRegisteredTestsEvE4data, i64 16), align 8, !tbaa !233
  store ptr getelementptr inbounds nuw (i8, ptr @_ZZN7doctest6detail18getRegisteredTestsEvE4data, i64 8), ptr getelementptr inbounds nuw (i8, ptr @_ZZN7doctest6detail18getRegisteredTestsEvE4data, i64 24), align 8, !tbaa !234
  store ptr getelementptr inbounds nuw (i8, ptr @_ZZN7doctest6detail18getRegisteredTestsEvE4data, i64 8), ptr getelementptr inbounds nuw (i8, ptr @_ZZN7doctest6detail18getRegisteredTestsEvE4data, i64 32), align 8, !tbaa !235
  store i64 0, ptr getelementptr inbounds nuw (i8, ptr @_ZZN7doctest6detail18getRegisteredTestsEvE4data, i64 40), align 8, !tbaa !236
  %8 = tail call i32 @__cxa_atexit(ptr nonnull @_ZNSt3setIN7doctest6detail8TestCaseESt4lessIS2_ESaIS2_EED2Ev, ptr nonnull @_ZZN7doctest6detail18getRegisteredTestsEvE4data, ptr nonnull @__dso_handle) #49
  tail call void @__cxa_guard_release(ptr nonnull @_ZGVZN7doctest6detail18getRegisteredTestsEvE4data) #49
  br label %_ZN7doctest6detail18getRegisteredTestsEv.exit

_ZN7doctest6detail18getRegisteredTestsEv.exit:    ; preds = %1, %5, %7
  %9 = tail call { ptr, ptr } @_ZNSt8_Rb_treeIN7doctest6detail8TestCaseES2_St9_IdentityIS2_ESt4lessIS2_ESaIS2_EE24_M_get_insert_unique_posERKS2_(ptr noundef nonnull align 8 dereferenceable(48) @_ZZN7doctest6detail18getRegisteredTestsEvE4data, ptr noundef nonnull align 8 dereferenceable(144) %0)
  %10 = extractvalue { ptr, ptr } %9, 1
  %.not.i.i = icmp eq ptr %10, null
  br i1 %.not.i.i, label %_ZNSt3setIN7doctest6detail8TestCaseESt4lessIS2_ESaIS2_EE6insertERKS2_.exit, label %11

11:                                               ; preds = %_ZN7doctest6detail18getRegisteredTestsEv.exit
  %12 = extractvalue { ptr, ptr } %9, 0
  call void @llvm.lifetime.start.p0(i64 8, ptr nonnull %2) #49
  store ptr @_ZZN7doctest6detail18getRegisteredTestsEvE4data, ptr %2, align 8, !tbaa !237
  %13 = call ptr @_ZNSt8_Rb_treeIN7doctest6detail8TestCaseES2_St9_IdentityIS2_ESt4lessIS2_ESaIS2_EE10_M_insert_IRKS2_NS8_11_Alloc_nodeEEESt17_Rb_tree_iteratorIS2_EPSt18_Rb_tree_node_baseSG_OT_RT0_(ptr noundef nonnull align 8 dereferenceable(48) @_ZZN7doctest6detail18getRegisteredTestsEvE4data, ptr noundef %12, ptr noundef nonnull %10, ptr noundef nonnull align 8 dereferenceable(144) %0, ptr noundef nonnull align 8 dereferenceable(8) %2)
  call void @llvm.lifetime.end.p0(i64 8, ptr nonnull %2) #49
  br label %_ZNSt3setIN7doctest6detail8TestCaseESt4lessIS2_ESaIS2_EE6insertERKS2_.exit

_ZNSt3setIN7doctest6detail8TestCaseESt4lessIS2_ESaIS2_EE6insertERKS2_.exit: ; preds = %_ZN7doctest6detail18getRegisteredTestsEv.exit, %11
  ret i32 0
}